; Function Attrs: nounwind uwtable
define hidden range(i32 -2147483647, -2147483648) i32 @uv__nonblock_ioctl(i32 noundef %0, i32 noundef %1) local_unnamed_addr #0 {
  %3 = alloca i32, align 4
  store i32 %1, ptr %3, align 4
  br label %4

4:                                                ; preds = %6, %2
  %5 = call i32 (i32, i64, ...) @ioctl(i32 noundef %0, i64 noundef 21537, ptr noundef nonnull %3) #23
  switch i32 %5, label %..critedge_crit_edge [
    i32 -1, label %6
    i32 0, label %.loopexit
  ]

..critedge_crit_edge:                             ; preds = %4
  %.pre = tail call ptr @__errno_location() #24
  br label %.critedge

6:                                                ; preds = %4
  %7 = tail call ptr @__errno_location() #24
  %8 = load i32, ptr %7, align 4
  %9 = icmp eq i32 %8, 4
  br i1 %9, label %4, label %.critedge

.critedge:                                        ; preds = %6, %..critedge_crit_edge
  %.pre-phi = phi ptr [ %.pre, %..critedge_crit_edge ], [ %7, %6 ]
  %10 = load i32, ptr %.pre-phi, align 4
  %11 = sub nsw i32 0, %10
  br label %.loopexit

.loopexit:                                        ; preds = %4, %.critedge
  %.0 = phi i32 [ %11, %.critedge ], [ %5, %4 ]
  ret i32 %.0
}